Certificate:
    Data:
        Version: 3 (0x2)
        Serial Number: 1 (0x1)
    Signature Algorithm: sha1WithRSAEncryption
        Issuer: C=AU, ST=Some-State, O=Internet Widgits Pty Ltd, CN=army8735/emailAddress=army8735@qq.com
        Validity
            Not Before: Jul 11 02:16:28 2014 GMT
            Not After : Nov 11 02:16:28 3013 GMT
        Subject: C=AU, ST=Some-State, O=Internet Widgits Pty Ltd, CN=army8735/emailAddress=army8735@qq.com
        Subject Public Key Info:
            Public Key Algorithm: rsaEncryption
                Public-Key: (1024 bit)
                Modulus:
                    00:fc:14:71:d7:e1:d0:4e:70:60:6c:cb:c0:f6:b5:
                    0d:a8:50:7e:d2:d8:f9:c0:64:64:74:b9:6b:b5:d8:
                    7d:e2:c5:bc:e7:32:cb:36:34:d9:4f:7a:18:4b:ec:
                    67:ee:81:c5:1b:a4:e5:b4:53:c6:19:25:04:6f:36:
                    bd:9b:0d:00:a1:fd:a5:28:98:07:d1:a1:02:e3:49:
                    56:89:cd:c3:6a:dd:a4:9c:54:a9:9f:f2:9b:a4:02:
                    4d:2e:e2:12:82:03:b1:82:61:51:bd:8e:bb:00:55:
                    b8:28:16:7a:91:dc:ad:cc:2c:0b:99:02:43:82:c5:
                    0e:26:e4:2f:19:f5:a3:de:8d
                Exponent: 65537 (0x10001)
        X509v3 extensions:
            X509v3 Basic Constraints: 
                CA:FALSE
            Netscape Comment: 
                OpenSSL Generated Certificate
            X509v3 Subject Key Identifier: 
                D4:5B:60:FA:25:03:30:88:38:01:5D:92:AD:BB:FC:9C:7A:50:78:A7
            X509v3 Authority Key Identifier: 
                keyid:66:8C:82:3A:02:27:A3:D5:AF:4B:ED:0D:67:B6:84:88:6E:2D:48:0C

    Signature Algorithm: sha1WithRSAEncryption
         55:fb:d7:a2:93:61:7f:4e:81:43:53:50:b5:3b:9f:f8:b2:c9:
         21:33:96:1a:45:8b:d8:ec:e2:d0:e0:c3:c5:00:c7:18:65:8e:
         0f:d2:a9:8f:ba:cb:19:f5:3d:b8:98:50:97:2d:e9:7c:49:db:
         62:78:af:db:87:f1:e7:35:07:59:78:c7:e4:f9:5f:d3:b8:62:
         0c:ad:e6:63:92:64:1f:3b:27:32:61:10:16:26:ae:1f:61:51:
         7e:7f:03:b9:33:5f:ed:7b:ba:50:8f:df:06:bf:7f:32:42:ef:
         a3:4a:be:8b:31:7f:56:53:fe:4a:60:18:a5:eb:08:cd:7b:d9:
         a1:8c
-----BEGIN CERTIFICATE-----
MIIC4zCCAkygAwIBAgIBATANBgkqhkiG9w0BAQUFADB4MQswCQYDVQQGEwJBVTET
MBEGA1UECAwKU29tZS1TdGF0ZTEhMB8GA1UECgwYSW50ZXJuZXQgV2lkZ2l0cyBQ
dHkgTHRkMREwDwYDVQQDDAhhcm15ODczNTEeMBwGCSqGSIb3DQEJARYPYXJteTg3
MzVAcXEuY29tMCAXDTE0MDcxMTAyMTYyOFoYDzMwMTMxMTExMDIxNjI4WjB4MQsw
CQYDVQQGEwJBVTETMBEGA1UECAwKU29tZS1TdGF0ZTEhMB8GA1UECgwYSW50ZXJu
ZXQgV2lkZ2l0cyBQdHkgTHRkMREwDwYDVQQDDAhhcm15ODczNTEeMBwGCSqGSIb3
DQEJARYPYXJteTg3MzVAcXEuY29tMIGfMA0GCSqGSIb3DQEBAQUAA4GNADCBiQKB
gQD8FHHX4dBOcGBsy8D2tQ2oUH7S2PnAZGR0uWu12H3ixbznMss2NNlPehhL7Gfu
gcUbpOW0U8YZJQRvNr2bDQCh/aUomAfRoQLjSVaJzcNq3aScVKmf8pukAk0u4hKC
A7GCYVG9jrsAVbgoFnqR3K3MLAuZAkOCxQ4m5C8Z9aPejQIDAQABo3sweTAJBgNV
HRMEAjAAMCwGCWCGSAGG+EIBDQQfFh1PcGVuU1NMIEdlbmVyYXRlZCBDZXJ0aWZp
Y2F0ZTAdBgNVHQ4EFgQU1Ftg+iUDMIg4AV2Srbv8nHpQeKcwHwYDVR0jBBgwFoAU
ZoyCOgIno9WvS+0NZ7aEiG4tSAwwDQYJKoZIhvcNAQEFBQADgYEAVfvXopNhf06B
Q1NQtTuf+LLJITOWGkWL2Ozi0ODDxQDHGGWOD9Kpj7rLGfU9uJhQly3pfEnbYniv
24fx5zUHWXjH5Plf07hiDK3mY5JkHzsnMmEQFiauH2FRfn8DuTNf7Xu6UI/fBr9/
MkLvo0q+izF/VlP+SmAYpesIzXvZoYw=
-----END CERTIFICATE-----
